target datalayout = "e-m:e-p270:32:32-p271:32:32-p272:64:64-i64:64-i128:128-f80:128-n8:16:32:64-S128"
target triple = "x86_64-pc-linux-gnu"

%"class.llvm::Type" = type { ptr, i32, i32, ptr }
%"class.llvm::TypedPointerType" = type { %"class.llvm::Type", ptr }

; Function Attrs: mustprogress nounwind uwtable
define linkonce_odr hidden void @_ZN4llvm4Type15setSubclassDataEj(ptr noundef nonnull align 8 dereferenceable(24) %0, i32 noundef %1) #0 comdat align 2 {
  %3 = alloca ptr, align 8
  %4 = alloca i32, align 4
  store ptr %0, ptr %3, align 8
  store i32 %1, ptr %4, align 4
  %5 = load ptr, ptr %3, align 8
  %6 = load i32, ptr %4, align 4
  %7 = getelementptr inbounds nuw %"class.llvm::Type", ptr %5, i32 0, i32 1
  %8 = load i32, ptr %7, align 8
  %9 = and i32 %6, 16777215
  %10 = shl i32 %9, 8
  %11 = and i32 %8, 255
  %12 = or i32 %11, %10
  store i32 %12, ptr %7, align 8
  ret void
}

; Function Attrs: mustprogress nounwind uwtable
define linkonce_odr hidden void @_ZN4llvm4TypeC2ERNS_11LLVMContextENS0_6TypeIDE(ptr noundef nonnull align 8 dereferenceable(24) %0, ptr noundef nonnull align 8 dereferenceable(8) %1, i32 noundef %2) unnamed_addr #0 comdat align 2 {
  %4 = alloca ptr, align 8
  %5 = alloca ptr, align 8
  %6 = alloca i32, align 4
  store ptr %0, ptr %4, align 8
  store ptr %1, ptr %5, align 8
  store i32 %2, ptr %6, align 4
  %7 = load ptr, ptr %4, align 8
  %8 = getelementptr inbounds nuw %"class.llvm::Type", ptr %7, i32 0, i32 0
  %9 = load ptr, ptr %5, align 8
  store ptr %9, ptr %8, align 8
  %10 = getelementptr inbounds nuw %"class.llvm::Type", ptr %7, i32 0, i32 1
  %11 = load i32, ptr %6, align 4
  %12 = load i32, ptr %10, align 8
  %13 = and i32 %11, 255
  %14 = and i32 %12, -256
  %15 = or i32 %14, %13
  store i32 %15, ptr %10, align 8
  %16 = getelementptr inbounds nuw %"class.llvm::Type", ptr %7, i32 0, i32 1
  %17 = load i32, ptr %16, align 8
  %18 = and i32 %17, 255
  %19 = or i32 %18, 0
  store i32 %19, ptr %16, align 8
  %20 = getelementptr inbounds nuw %"class.llvm::Type", ptr %7, i32 0, i32 2
  store i32 0, ptr %20, align 4
  %21 = getelementptr inbounds nuw %"class.llvm::Type", ptr %7, i32 0, i32 3
  store ptr null, ptr %21, align 8
  ret void
}

; Function Attrs: mustprogress nounwind uwtable
define linkonce_odr hidden noundef nonnull align 8 dereferenceable(8) ptr @_ZNK4llvm4Type10getContextEv(ptr noundef nonnull align 8 dereferenceable(24) %0) #0 comdat align 2 {
  %2 = alloca ptr, align 8
  store ptr %0, ptr %2, align 8
  %3 = load ptr, ptr %2, align 8
  %4 = getelementptr inbounds nuw %"class.llvm::Type", ptr %3, i32 0, i32 0
  %5 = load ptr, ptr %4, align 8
  ret ptr %5
}

; Function Attrs: mustprogress nounwind uwtable
define dso_local void @_ZN4llvm16TypedPointerTypeC2EPNS_4TypeEj(ptr noundef nonnull align 8 dereferenceable(32) %0, ptr noundef %1, i32 noundef %2) unnamed_addr #0 align 2 {
  %4 = alloca ptr, align 8
  %5 = alloca ptr, align 8
  %6 = alloca i32, align 4
  store ptr %0, ptr %4, align 8
  store ptr %1, ptr %5, align 8
  store i32 %2, ptr %6, align 4
  %7 = load ptr, ptr %4, align 8
  %8 = load ptr, ptr %5, align 8
  %9 = call noundef nonnull align 8 dereferenceable(8) ptr @_ZNK4llvm4Type10getContextEv(ptr noundef nonnull align 8 dereferenceable(24) %8)
  call void @_ZN4llvm4TypeC2ERNS_11LLVMContextENS0_6TypeIDE(ptr noundef nonnull align 8 dereferenceable(24) %7, ptr noundef nonnull align 8 dereferenceable(8) %9, i32 noundef 19)
  %10 = getelementptr inbounds nuw %"class.llvm::TypedPointerType", ptr %7, i32 0, i32 1
  %11 = load ptr, ptr %5, align 8
  store ptr %11, ptr %10, align 8
  %12 = getelementptr inbounds nuw %"class.llvm::TypedPointerType", ptr %7, i32 0, i32 1
  %13 = getelementptr inbounds nuw %"class.llvm::Type", ptr %7, i32 0, i32 3
  store ptr %12, ptr %13, align 8
  %14 = getelementptr inbounds nuw %"class.llvm::Type", ptr %7, i32 0, i32 2
  store i32 1, ptr %14, align 4
  %15 = load i32, ptr %6, align 4
  call void @_ZN4llvm4Type15setSubclassDataEj(ptr noundef nonnull align 8 dereferenceable(24) %7, i32 noundef %15)
  ret void
}