; Function Attrs: mustprogress nofree norecurse nosync nounwind willreturn memory(argmem: readwrite) uwtable
define dso_local void @_ZN4llvm16TypedPointerTypeC2EPNS_4TypeEj(ptr noundef nonnull align 8 dereferenceable(32) %0, ptr noundef %1, i32 noundef %2) unnamed_addr #1 align 2 {
  %4 = load ptr, ptr %1, align 8
  store ptr %4, ptr %0, align 8
  %5 = getelementptr inbounds nuw i8, ptr %0, i64 8
  %6 = getelementptr inbounds nuw i8, ptr %0, i64 12
  %7 = getelementptr inbounds nuw i8, ptr %0, i64 16
  %8 = getelementptr inbounds nuw i8, ptr %0, i64 24
  store ptr %1, ptr %8, align 8
  store ptr %8, ptr %7, align 8
  store i32 1, ptr %6, align 4
  %9 = shl i32 %2, 8
  %10 = or disjoint i32 %9, 19
  store i32 %10, ptr %5, align 8
  ret void
}